target datalayout = "e-m:e-p270:32:32-p271:32:32-p272:64:64-i64:64-i128:128-f80:128-n8:16:32:64-S128"
target triple = "x86_64-pc-linux-gnu"

@.str.620 = private unnamed_addr constant [25 x i8] c"Open Shortest Path First\00", align 1
@.str.621 = private unnamed_addr constant [5 x i8] c"OSPF\00", align 1
@.str.622 = private unnamed_addr constant [5 x i8] c"ospf\00", align 1
@proto_ospf = internal global i32 0, align 4
@ospf_handle = internal global ptr null, align 8
@ospf_cap_handle = internal global ptr null, align 8

; Function Attrs: null_pointer_is_valid sspstrong uwtable
define hidden void @proto_register_ospf() #0 {
  %1 = alloca ptr, align 8
  call void @llvm.lifetime.start.p0(i64 8, ptr %1) #11
  %2 = call i32 @proto_register_protocol(ptr noundef @.str.620, ptr noundef @.str.621, ptr noundef @.str.622)
  store i32 %2, ptr @proto_ospf, align 4
  %3 = load i32, ptr @proto_ospf, align 4
  %4 = call ptr @register_dissector(ptr noundef @.str.622, ptr noundef @dissect_ospf, i32 noundef %3)
  store ptr %4, ptr @ospf_handle, align 8
  %5 = load i32, ptr @proto_ospf, align 4
  %6 = call ptr @register_capture_dissector(ptr noundef @.str.622, ptr noundef @capture_ospf, i32 noundef %5)
  store ptr %6, ptr @ospf_cap_handle, align 8
  %7 = load i32, ptr @proto_ospf, align 4
  call void @proto_register_field_array(i32 noundef %7, ptr noundef @proto_register_ospf.ospff_info, i32 noundef 335)
  call void @proto_register_subtree_array(ptr noundef @proto_register_ospf.ett, i32 noundef 79)
  %8 = load i32, ptr @proto_ospf, align 4
  %9 = call ptr @expert_register_protocol(i32 noundef %8)
  store ptr %9, ptr %1, align 8
  %10 = load ptr, ptr %1, align 8
  call void @expert_register_field_array(ptr noundef %10, ptr noundef @proto_register_ospf.ei, i32 noundef 7)
  call void @llvm.lifetime.end.p0(i64 8, ptr %1) #11
  ret void
}