; Function Attrs: null_pointer_is_valid sspstrong uwtable
define hidden void @proto_register_ospf() local_unnamed_addr #0 {
  %1 = tail call i32 @proto_register_protocol(ptr noundef nonnull @.str.620, ptr noundef nonnull @.str.621, ptr noundef nonnull @.str.622)
  store i32 %1, ptr @proto_ospf, align 4
  %2 = tail call ptr @register_dissector(ptr noundef nonnull @.str.622, ptr noundef nonnull @dissect_ospf, i32 noundef %1)
  store ptr %2, ptr @ospf_handle, align 8
  %3 = load i32, ptr @proto_ospf, align 4
  %4 = tail call ptr @register_capture_dissector(ptr noundef nonnull @.str.622, ptr noundef nonnull @capture_ospf, i32 noundef %3)
  store ptr %4, ptr @ospf_cap_handle, align 8
  %5 = load i32, ptr @proto_ospf, align 4
  tail call void @proto_register_field_array(i32 noundef %5, ptr noundef nonnull @proto_register_ospf.ospff_info, i32 noundef 335)
  tail call void @proto_register_subtree_array(ptr noundef nonnull @proto_register_ospf.ett, i32 noundef 79)
  %6 = load i32, ptr @proto_ospf, align 4
  %7 = tail call ptr @expert_register_protocol(i32 noundef %6)
  tail call void @expert_register_field_array(ptr noundef %7, ptr noundef nonnull @proto_register_ospf.ei, i32 noundef 7)
  ret void
}